target datalayout = "e-m:e-p270:32:32-p271:32:32-p272:64:64-i64:64-i128:128-f80:128-n8:16:32:64-S128"
target triple = "x86_64-unknown-linux-gnu"

%"class.std::__cxx11::basic_string" = type { %"struct.std::__cxx11::basic_string<char>::_Alloc_hider", i64, %union.anon }
%"struct.std::__cxx11::basic_string<char>::_Alloc_hider" = type { ptr }
%union.anon = type { i64, [8 x i8] }
%"struct.rocksdb::blob_db::BlobDBOptions" = type <{ %"class.std::__cxx11::basic_string", i8, i8, [6 x i8], i64, i64, i64, i64, i64, i8, i8, [6 x i8], double, i8, [7 x i8] }>

@.str.1 = private unnamed_addr constant [61 x i8] c"                                  BlobDBOptions.blob_dir: %s\00", align 1
@.str.2 = private unnamed_addr constant [61 x i8] c"                             BlobDBOptions.path_relative: %d\00", align 1
@.str.3 = private unnamed_addr constant [61 x i8] c"                                   BlobDBOptions.is_fifo: %d\00", align 1
@.str.4 = private unnamed_addr constant [62 x i8] c"                               BlobDBOptions.max_db_size: %lu\00", align 1
@.str.5 = private unnamed_addr constant [62 x i8] c"                            BlobDBOptions.ttl_range_secs: %lu\00", align 1
@.str.6 = private unnamed_addr constant [62 x i8] c"                             BlobDBOptions.min_blob_size: %lu\00", align 1
@.str.7 = private unnamed_addr constant [62 x i8] c"                            BlobDBOptions.bytes_per_sync: %lu\00", align 1
@.str.8 = private unnamed_addr constant [62 x i8] c"                            BlobDBOptions.blob_file_size: %lu\00", align 1
@.str.9 = private unnamed_addr constant [61 x i8] c"                               BlobDBOptions.compression: %d\00", align 1
@.str.10 = private unnamed_addr constant [61 x i8] c"                 BlobDBOptions.enable_garbage_collection: %d\00", align 1
@.str.11 = private unnamed_addr constant [61 x i8] c"                 BlobDBOptions.garbage_collection_cutoff: %f\00", align 1
@.str.12 = private unnamed_addr constant [61 x i8] c"                  BlobDBOptions.disable_background_tasks: %d\00", align 1

; Function Attrs: mustprogress uwtable
define void @_ZNK7rocksdb7blob_db13BlobDBOptions4DumpEPNS_6LoggerE(ptr noundef nonnull align 8 dereferenceable(97) %this, ptr noundef %log) #0 align 2 {
entry:
  %this.addr = alloca ptr, align 8
  %log.addr = alloca ptr, align 8
  store ptr %this, ptr %this.addr, align 8
  store ptr %log, ptr %log.addr, align 8
  %this1 = load ptr, ptr %this.addr, align 8
  %0 = load ptr, ptr %log.addr, align 8
  %blob_dir = getelementptr inbounds %"struct.rocksdb::blob_db::BlobDBOptions", ptr %this1, i32 0, i32 0
  %call = call noundef ptr @_ZNKSt7__cxx1112basic_stringIcSt11char_traitsIcESaIcEE5c_strEv(ptr noundef nonnull align 8 dereferenceable(32) %blob_dir) #3
  call void (i8, ptr, ptr, ...) @_ZN7rocksdb3LogENS_12InfoLogLevelEPNS_6LoggerEPKcz(i8 noundef zeroext 5, ptr noundef %0, ptr noundef @.str.1, ptr noundef %call)
  %1 = load ptr, ptr %log.addr, align 8
  %path_relative = getelementptr inbounds %"struct.rocksdb::blob_db::BlobDBOptions", ptr %this1, i32 0, i32 1
  %2 = load i8, ptr %path_relative, align 8
  %tobool = trunc i8 %2 to i1
  %conv = zext i1 %tobool to i32
  call void (i8, ptr, ptr, ...) @_ZN7rocksdb3LogENS_12InfoLogLevelEPNS_6LoggerEPKcz(i8 noundef zeroext 5, ptr noundef %1, ptr noundef @.str.2, i32 noundef %conv)
  %3 = load ptr, ptr %log.addr, align 8
  %is_fifo = getelementptr inbounds %"struct.rocksdb::blob_db::BlobDBOptions", ptr %this1, i32 0, i32 2
  %4 = load i8, ptr %is_fifo, align 1
  %tobool2 = trunc i8 %4 to i1
  %conv3 = zext i1 %tobool2 to i32
  call void (i8, ptr, ptr, ...) @_ZN7rocksdb3LogENS_12InfoLogLevelEPNS_6LoggerEPKcz(i8 noundef zeroext 5, ptr noundef %3, ptr noundef @.str.3, i32 noundef %conv3)
  %5 = load ptr, ptr %log.addr, align 8
  %max_db_size = getelementptr inbounds %"struct.rocksdb::blob_db::BlobDBOptions", ptr %this1, i32 0, i32 4
  %6 = load i64, ptr %max_db_size, align 8
  call void (i8, ptr, ptr, ...) @_ZN7rocksdb3LogENS_12InfoLogLevelEPNS_6LoggerEPKcz(i8 noundef zeroext 5, ptr noundef %5, ptr noundef @.str.4, i64 noundef %6)
  %7 = load ptr, ptr %log.addr, align 8
  %ttl_range_secs = getelementptr inbounds %"struct.rocksdb::blob_db::BlobDBOptions", ptr %this1, i32 0, i32 5
  %8 = load i64, ptr %ttl_range_secs, align 8
  call void (i8, ptr, ptr, ...) @_ZN7rocksdb3LogENS_12InfoLogLevelEPNS_6LoggerEPKcz(i8 noundef zeroext 5, ptr noundef %7, ptr noundef @.str.5, i64 noundef %8)
  %9 = load ptr, ptr %log.addr, align 8
  %min_blob_size = getelementptr inbounds %"struct.rocksdb::blob_db::BlobDBOptions", ptr %this1, i32 0, i32 6
  %10 = load i64, ptr %min_blob_size, align 8
  call void (i8, ptr, ptr, ...) @_ZN7rocksdb3LogENS_12InfoLogLevelEPNS_6LoggerEPKcz(i8 noundef zeroext 5, ptr noundef %9, ptr noundef @.str.6, i64 noundef %10)
  %11 = load ptr, ptr %log.addr, align 8
  %bytes_per_sync = getelementptr inbounds %"struct.rocksdb::blob_db::BlobDBOptions", ptr %this1, i32 0, i32 7
  %12 = load i64, ptr %bytes_per_sync, align 8
  call void (i8, ptr, ptr, ...) @_ZN7rocksdb3LogENS_12InfoLogLevelEPNS_6LoggerEPKcz(i8 noundef zeroext 5, ptr noundef %11, ptr noundef @.str.7, i64 noundef %12)
  %13 = load ptr, ptr %log.addr, align 8
  %blob_file_size = getelementptr inbounds %"struct.rocksdb::blob_db::BlobDBOptions", ptr %this1, i32 0, i32 8
  %14 = load i64, ptr %blob_file_size, align 8
  call void (i8, ptr, ptr, ...) @_ZN7rocksdb3LogENS_12InfoLogLevelEPNS_6LoggerEPKcz(i8 noundef zeroext 5, ptr noundef %13, ptr noundef @.str.8, i64 noundef %14)
  %15 = load ptr, ptr %log.addr, align 8
  %compression = getelementptr inbounds %"struct.rocksdb::blob_db::BlobDBOptions", ptr %this1, i32 0, i32 9
  %16 = load i8, ptr %compression, align 8
  %conv4 = zext i8 %16 to i32
  call void (i8, ptr, ptr, ...) @_ZN7rocksdb3LogENS_12InfoLogLevelEPNS_6LoggerEPKcz(i8 noundef zeroext 5, ptr noundef %15, ptr noundef @.str.9, i32 noundef %conv4)
  %17 = load ptr, ptr %log.addr, align 8
  %enable_garbage_collection = getelementptr inbounds %"struct.rocksdb::blob_db::BlobDBOptions", ptr %this1, i32 0, i32 10
  %18 = load i8, ptr %enable_garbage_collection, align 1
  %tobool5 = trunc i8 %18 to i1
  %conv6 = zext i1 %tobool5 to i32
  call void (i8, ptr, ptr, ...) @_ZN7rocksdb3LogENS_12InfoLogLevelEPNS_6LoggerEPKcz(i8 noundef zeroext 5, ptr noundef %17, ptr noundef @.str.10, i32 noundef %conv6)
  %19 = load ptr, ptr %log.addr, align 8
  %garbage_collection_cutoff = getelementptr inbounds %"struct.rocksdb::blob_db::BlobDBOptions", ptr %this1, i32 0, i32 12
  %20 = load double, ptr %garbage_collection_cutoff, align 8
  call void (i8, ptr, ptr, ...) @_ZN7rocksdb3LogENS_12InfoLogLevelEPNS_6LoggerEPKcz(i8 noundef zeroext 5, ptr noundef %19, ptr noundef @.str.11, double noundef %20)
  %21 = load ptr, ptr %log.addr, align 8
  %disable_background_tasks = getelementptr inbounds %"struct.rocksdb::blob_db::BlobDBOptions", ptr %this1, i32 0, i32 13
  %22 = load i8, ptr %disable_background_tasks, align 8
  %tobool7 = trunc i8 %22 to i1
  %conv8 = zext i1 %tobool7 to i32
  call void (i8, ptr, ptr, ...) @_ZN7rocksdb3LogENS_12InfoLogLevelEPNS_6LoggerEPKcz(i8 noundef zeroext 5, ptr noundef %21, ptr noundef @.str.12, i32 noundef %conv8)
  ret void
}