; Function Attrs: mustprogress uwtable
define void @_ZNK7rocksdb7blob_db13BlobDBOptions4DumpEPNS_6LoggerE(ptr noundef nonnull align 8 dereferenceable(97) %this, ptr noundef %log) local_unnamed_addr #2 align 2 {
entry:
  %call = tail call noundef ptr @_ZNKSt7__cxx1112basic_stringIcSt11char_traitsIcESaIcEE5c_strEv(ptr noundef nonnull align 8 dereferenceable(32) %this) #18
  tail call void (i8, ptr, ptr, ...) @_ZN7rocksdb3LogENS_12InfoLogLevelEPNS_6LoggerEPKcz(i8 noundef zeroext 5, ptr noundef %log, ptr noundef nonnull @.str.1, ptr noundef %call)
  %path_relative = getelementptr inbounds i8, ptr %this, i64 32
  %0 = load i8, ptr %path_relative, align 8
  %1 = and i8 %0, 1
  %conv = zext nneg i8 %1 to i32
  tail call void (i8, ptr, ptr, ...) @_ZN7rocksdb3LogENS_12InfoLogLevelEPNS_6LoggerEPKcz(i8 noundef zeroext 5, ptr noundef %log, ptr noundef nonnull @.str.2, i32 noundef %conv)
  %is_fifo = getelementptr inbounds i8, ptr %this, i64 33
  %2 = load i8, ptr %is_fifo, align 1
  %3 = and i8 %2, 1
  %conv3 = zext nneg i8 %3 to i32
  tail call void (i8, ptr, ptr, ...) @_ZN7rocksdb3LogENS_12InfoLogLevelEPNS_6LoggerEPKcz(i8 noundef zeroext 5, ptr noundef %log, ptr noundef nonnull @.str.3, i32 noundef %conv3)
  %max_db_size = getelementptr inbounds i8, ptr %this, i64 40
  %4 = load i64, ptr %max_db_size, align 8
  tail call void (i8, ptr, ptr, ...) @_ZN7rocksdb3LogENS_12InfoLogLevelEPNS_6LoggerEPKcz(i8 noundef zeroext 5, ptr noundef %log, ptr noundef nonnull @.str.4, i64 noundef %4)
  %ttl_range_secs = getelementptr inbounds i8, ptr %this, i64 48
  %5 = load i64, ptr %ttl_range_secs, align 8
  tail call void (i8, ptr, ptr, ...) @_ZN7rocksdb3LogENS_12InfoLogLevelEPNS_6LoggerEPKcz(i8 noundef zeroext 5, ptr noundef %log, ptr noundef nonnull @.str.5, i64 noundef %5)
  %min_blob_size = getelementptr inbounds i8, ptr %this, i64 56
  %6 = load i64, ptr %min_blob_size, align 8
  tail call void (i8, ptr, ptr, ...) @_ZN7rocksdb3LogENS_12InfoLogLevelEPNS_6LoggerEPKcz(i8 noundef zeroext 5, ptr noundef %log, ptr noundef nonnull @.str.6, i64 noundef %6)
  %bytes_per_sync = getelementptr inbounds i8, ptr %this, i64 64
  %7 = load i64, ptr %bytes_per_sync, align 8
  tail call void (i8, ptr, ptr, ...) @_ZN7rocksdb3LogENS_12InfoLogLevelEPNS_6LoggerEPKcz(i8 noundef zeroext 5, ptr noundef %log, ptr noundef nonnull @.str.7, i64 noundef %7)
  %blob_file_size = getelementptr inbounds i8, ptr %this, i64 72
  %8 = load i64, ptr %blob_file_size, align 8
  tail call void (i8, ptr, ptr, ...) @_ZN7rocksdb3LogENS_12InfoLogLevelEPNS_6LoggerEPKcz(i8 noundef zeroext 5, ptr noundef %log, ptr noundef nonnull @.str.8, i64 noundef %8)
  %compression = getelementptr inbounds i8, ptr %this, i64 80
  %9 = load i8, ptr %compression, align 8
  %conv4 = zext i8 %9 to i32
  tail call void (i8, ptr, ptr, ...) @_ZN7rocksdb3LogENS_12InfoLogLevelEPNS_6LoggerEPKcz(i8 noundef zeroext 5, ptr noundef %log, ptr noundef nonnull @.str.9, i32 noundef %conv4)
  %enable_garbage_collection = getelementptr inbounds i8, ptr %this, i64 81
  %10 = load i8, ptr %enable_garbage_collection, align 1
  %11 = and i8 %10, 1
  %conv6 = zext nneg i8 %11 to i32
  tail call void (i8, ptr, ptr, ...) @_ZN7rocksdb3LogENS_12InfoLogLevelEPNS_6LoggerEPKcz(i8 noundef zeroext 5, ptr noundef %log, ptr noundef nonnull @.str.10, i32 noundef %conv6)
  %garbage_collection_cutoff = getelementptr inbounds i8, ptr %this, i64 88
  %12 = load double, ptr %garbage_collection_cutoff, align 8
  tail call void (i8, ptr, ptr, ...) @_ZN7rocksdb3LogENS_12InfoLogLevelEPNS_6LoggerEPKcz(i8 noundef zeroext 5, ptr noundef %log, ptr noundef nonnull @.str.11, double noundef %12)
  %disable_background_tasks = getelementptr inbounds i8, ptr %this, i64 96
  %13 = load i8, ptr %disable_background_tasks, align 8
  %14 = and i8 %13, 1
  %conv8 = zext nneg i8 %14 to i32
  tail call void (i8, ptr, ptr, ...) @_ZN7rocksdb3LogENS_12InfoLogLevelEPNS_6LoggerEPKcz(i8 noundef zeroext 5, ptr noundef %log, ptr noundef nonnull @.str.12, i32 noundef %conv8)
  ret void
}